target datalayout = "e-m:e-p270:32:32-p271:32:32-p272:64:64-i64:64-i128:128-f80:128-n8:16:32:64-S128"
target triple = "x86_64-pc-linux-gnu"

%struct.DCALbrDecoder = type { ptr, %struct.GetBitContext, i32, i32, i32, i32, i32, i32, i32, i32, i32, i32, i32, i32, i32, i32, i32, i32, i32, i32, i32, [3 x [32 x i8]], [32 x i8], [3 x [32 x i8]], [3 x [32 x i8]], [6 x i32], [6 x [12 x [8 x i8]]], [6 x [3 x [64 x i8]]], [6 x [28 x i8]], [6 x [28 x [8 x i8]]], [6 x i32], [6 x [32 x [8 x i8]]], [6 x [8 x [5 x i8]]], i8, [2 x [6 x [3 x [2 x [8 x float]]]]], [32 x float], [6 x [32 x ptr]], ptr, i32, [4 x i8], [6 x [128 x float]], [128 x float], [64 x float], [5 x [2 x float]], float, [6 x i8], [5 x [32 x [2 x i16]]], [512 x %struct.DCALbrTone], i32, ptr, ptr, ptr, ptr, [8 x i8] }
%struct.GetBitContext = type { ptr, ptr, i32, i32, i32 }
%struct.DCALbrTone = type { i8, i8, i8, i8, [6 x i8], [6 x i8] }

; Function Attrs: cold nounwind optsize uwtable
define void @ff_dca_lbr_close(ptr noundef %0) #0 {
  %2 = alloca ptr, align 8
  store ptr %0, ptr %2, align 8, !tbaa !12
  %3 = load ptr, ptr %2, align 8, !tbaa !12
  %4 = getelementptr inbounds nuw %struct.DCALbrDecoder, ptr %3, i32 0, i32 2
  store i32 0, ptr %4, align 8, !tbaa !30
  %5 = load ptr, ptr %2, align 8, !tbaa !12
  %6 = getelementptr inbounds nuw %struct.DCALbrDecoder, ptr %5, i32 0, i32 37
  call void @av_freep(ptr noundef %6)
  %7 = load ptr, ptr %2, align 8, !tbaa !12
  %8 = getelementptr inbounds nuw %struct.DCALbrDecoder, ptr %7, i32 0, i32 38
  store i32 0, ptr %8, align 8, !tbaa !177
  %9 = load ptr, ptr %2, align 8, !tbaa !12
  %10 = getelementptr inbounds nuw %struct.DCALbrDecoder, ptr %9, i32 0, i32 51
  call void @av_freep(ptr noundef %10)
  %11 = load ptr, ptr %2, align 8, !tbaa !12
  %12 = getelementptr inbounds nuw %struct.DCALbrDecoder, ptr %11, i32 0, i32 49
  call void @av_tx_uninit(ptr noundef %12)
  ret void
}