; Function Attrs: cold nounwind optsize uwtable
define void @ff_dca_lbr_close(ptr noundef initializes((40, 44)) %0) local_unnamed_addr #7 {
  %2 = getelementptr inbounds nuw i8, ptr %0, i64 40
  store i32 0, ptr %2, align 8, !tbaa !25
  %3 = getelementptr inbounds nuw i8, ptr %0, i64 9472
  tail call void @av_freep(ptr noundef nonnull %3) #12
  %4 = getelementptr inbounds nuw i8, ptr %0, i64 9480
  store i32 0, ptr %4, align 8, !tbaa !176
  %5 = getelementptr inbounds nuw i8, ptr %0, i64 22232
  tail call void @av_freep(ptr noundef nonnull %5) #12
  %6 = getelementptr inbounds nuw i8, ptr %0, i64 22216
  tail call void @av_tx_uninit(ptr noundef nonnull %6) #12
  ret void
}